target datalayout = "e-m:e-p270:32:32-p271:32:32-p272:64:64-i64:64-i128:128-f80:128-n8:16:32:64-S128"
target triple = "x86_64-pc-linux-gnu"

%"class.absl::lts_20240722::log_internal::Voidify" = type { i8 }
%"class.absl::lts_20240722::log_internal::LogMessage" = type { %"class.absl::lts_20240722::base_internal::ErrnoSaver", %"class.std::unique_ptr" }
%"class.absl::lts_20240722::base_internal::ErrnoSaver" = type { i32 }
%"class.std::unique_ptr" = type { %"struct.std::__uniq_ptr_data" }
%"struct.std::__uniq_ptr_data" = type { %"class.std::__uniq_ptr_impl" }
%"class.std::__uniq_ptr_impl" = type { %"class.std::tuple" }
%"class.std::tuple" = type { %"struct.std::_Tuple_impl" }
%"struct.std::_Tuple_impl" = type { %"struct.std::_Head_base.1" }
%"struct.std::_Head_base.1" = type { ptr }
%struct.grpc_slice = type { ptr, %"union.grpc_slice::grpc_slice_data" }
%"union.grpc_slice::grpc_slice_data" = type { %"struct.grpc_slice::grpc_slice_data::grpc_slice_refcounted", [8 x i8] }
%"struct.grpc_slice::grpc_slice_data::grpc_slice_refcounted" = type { i64, ptr }
%"class.std::basic_string_view" = type { i64, ptr }
%struct.alts_tsi_handshaker = type { %struct.tsi_handshaker, %struct.grpc_slice, i8, i8, i8, ptr, ptr, ptr, ptr, ptr, i8, %"class.absl::lts_20240722::Mutex", ptr, i8, i64 }
%struct.tsi_handshaker = type { ptr, i8, i8, i8 }
%"class.absl::lts_20240722::Mutex" = type { %"struct.std::atomic" }
%"struct.std::atomic" = type { %"struct.std::__atomic_base" }
%"struct.std::__atomic_base" = type { i64 }

@.str = private unnamed_addr constant [139 x i8] c"generated/home/dtcxzyw/WorkSpace/Projects/compilers/llvm-opt-benchmark/bench/grpc/grpc/src/core/tsi/alts/handshaker/alts_tsi_handshaker.cc\00", align 1
@.str.13 = private unnamed_addr constant [50 x i8] c"Invalid arguments to alts_tsi_handshaker_create()\00", align 1

; Function Attrs: mustprogress nounwind uwtable
define linkonce_odr void @_ZNSt13__atomic_baseIlEC2El(ptr noundef nonnull align 8 dereferenceable(8) %0, i64 noundef %1) unnamed_addr #6 comdat align 2 {
  %3 = alloca ptr, align 8
  %4 = alloca i64, align 8
  store ptr %0, ptr %3, align 8, !tbaa !268
  store i64 %1, ptr %4, align 8, !tbaa !40
  %5 = load ptr, ptr %3, align 8
  %6 = getelementptr inbounds nuw %"struct.std::__atomic_base", ptr %5, i32 0, i32 0
  %7 = load i64, ptr %4, align 8, !tbaa !40
  store i64 %7, ptr %6, align 8, !tbaa !270
  ret void
}

; Function Attrs: mustprogress nounwind uwtable
define linkonce_odr void @_ZNSt6atomicIlEC2El(ptr noundef nonnull align 8 dereferenceable(8) %0, i64 noundef %1) unnamed_addr #6 comdat align 2 {
  %3 = alloca ptr, align 8
  %4 = alloca i64, align 8
  store ptr %0, ptr %3, align 8, !tbaa !266
  store i64 %1, ptr %4, align 8, !tbaa !40
  %5 = load ptr, ptr %3, align 8
  %6 = load i64, ptr %4, align 8, !tbaa !40
  call void @_ZNSt13__atomic_baseIlEC2El(ptr noundef nonnull align 8 dereferenceable(8) %5, i64 noundef %6) #3
  ret void
}

; Function Attrs: mustprogress nounwind uwtable
define linkonce_odr noundef i64 @_ZNSt11char_traitsIcE6lengthEPKc(ptr noundef %0) #6 comdat align 2 {
  %2 = alloca ptr, align 8
  store ptr %0, ptr %2, align 8, !tbaa !39
  %3 = load ptr, ptr %2, align 8, !tbaa !39
  %4 = call i64 @strlen(ptr noundef %3) #3
  ret i64 %4
}

; Function Attrs: inlinehint mustprogress nounwind uwtable
define linkonce_odr void @_ZN4absl12lts_202407225MutexC2Ev(ptr noundef nonnull align 8 dereferenceable(8) %0) unnamed_addr #11 comdat align 2 {
  %2 = alloca ptr, align 8
  store ptr %0, ptr %2, align 8, !tbaa !91
  %3 = load ptr, ptr %2, align 8
  %4 = getelementptr inbounds nuw %"class.absl::lts_20240722::Mutex", ptr %3, i32 0, i32 0
  call void @_ZNSt6atomicIlEC2El(ptr noundef nonnull align 8 dereferenceable(8) %4, i64 noundef 0) #3
  ret void
}

; Function Attrs: mustprogress nounwind uwtable
define linkonce_odr void @_ZNSt17basic_string_viewIcSt11char_traitsIcEEC2EPKc(ptr noundef nonnull align 8 dereferenceable(16) %0, ptr noundef nonnull %1) unnamed_addr #6 comdat align 2 {
  %3 = alloca ptr, align 8
  %4 = alloca ptr, align 8
  store ptr %0, ptr %3, align 8, !tbaa !118
  store ptr %1, ptr %4, align 8, !tbaa !39
  %5 = load ptr, ptr %3, align 8
  %6 = getelementptr inbounds nuw %"class.std::basic_string_view", ptr %5, i32 0, i32 0
  %7 = load ptr, ptr %4, align 8, !tbaa !39
  %8 = call noundef i64 @_ZNSt11char_traitsIcE6lengthEPKc(ptr noundef %7)
  store i64 %8, ptr %6, align 8, !tbaa !120
  %9 = getelementptr inbounds nuw %"class.std::basic_string_view", ptr %5, i32 0, i32 1
  %10 = load ptr, ptr %4, align 8, !tbaa !39
  store ptr %10, ptr %9, align 8, !tbaa !122
  ret void
}

; Function Attrs: inlinehint mustprogress uwtable
define linkonce_odr void @_ZN19alts_tsi_handshakerC2Ev(ptr noundef nonnull align 8 dereferenceable(136) %0) unnamed_addr #9 comdat align 2 {
  %2 = alloca ptr, align 8
  store ptr %0, ptr %2, align 8, !tbaa !67
  %3 = load ptr, ptr %2, align 8
  %4 = getelementptr inbounds nuw %struct.alts_tsi_handshaker, ptr %3, i32 0, i32 3
  store i8 0, ptr %4, align 1, !tbaa !108
  %5 = getelementptr inbounds nuw %struct.alts_tsi_handshaker, ptr %3, i32 0, i32 4
  store i8 0, ptr %5, align 2, !tbaa !109
  %6 = getelementptr inbounds nuw %struct.alts_tsi_handshaker, ptr %3, i32 0, i32 8
  store ptr null, ptr %6, align 8, !tbaa !110
  %7 = getelementptr inbounds nuw %struct.alts_tsi_handshaker, ptr %3, i32 0, i32 9
  store ptr null, ptr %7, align 8, !tbaa !111
  %8 = getelementptr inbounds nuw %struct.alts_tsi_handshaker, ptr %3, i32 0, i32 11
  call void @_ZN4absl12lts_202407225MutexC2Ev(ptr noundef nonnull align 8 dereferenceable(8) %8)
  %9 = getelementptr inbounds nuw %struct.alts_tsi_handshaker, ptr %3, i32 0, i32 12
  store ptr null, ptr %9, align 8, !tbaa !112
  %10 = getelementptr inbounds nuw %struct.alts_tsi_handshaker, ptr %3, i32 0, i32 13
  store i8 0, ptr %10, align 8, !tbaa !73
  ret void
}

; Function Attrs: mustprogress nounwind uwtable
define linkonce_odr void @_ZNKO4absl12lts_2024072212log_internal7VoidifyaaINS1_10LogMessageEEEvRKT_(ptr noundef nonnull align 1 dereferenceable(1) %0, ptr noundef nonnull align 8 dereferenceable(16) %1) #6 comdat align 2 {
  %3 = alloca ptr, align 8
  %4 = alloca ptr, align 8
  store ptr %0, ptr %3, align 8, !tbaa !52
  store ptr %1, ptr %4, align 8, !tbaa !54
  ret void
}

; Function Attrs: mustprogress uwtable
define linkonce_odr noundef nonnull align 8 dereferenceable(16) ptr @_ZN4absl12lts_2024072212log_internal10LogMessagelsILi50EEERS2_RAT__Kc(ptr noundef nonnull align 8 dereferenceable(16) %0, ptr noundef nonnull align 1 dereferenceable(50) %1) #4 comdat align 2 {
  %3 = alloca ptr, align 8
  %4 = alloca ptr, align 8
  %5 = alloca %"class.std::basic_string_view", align 8
  store ptr %0, ptr %3, align 8, !tbaa !54
  store ptr %1, ptr %4, align 8, !tbaa !39
  %6 = load ptr, ptr %3, align 8
  %7 = load ptr, ptr %4, align 8, !tbaa !39
  %8 = getelementptr inbounds [50 x i8], ptr %7, i64 0, i64 0
  call void @_ZNSt17basic_string_viewIcSt11char_traitsIcEEC2EPKc(ptr noundef nonnull align 8 dereferenceable(16) %5, ptr noundef %8) #3
  %9 = getelementptr inbounds nuw { i64, ptr }, ptr %5, i32 0, i32 0
  %10 = load i64, ptr %9, align 8
  %11 = getelementptr inbounds nuw { i64, ptr }, ptr %5, i32 0, i32 1
  %12 = load ptr, ptr %11, align 8
  call void @_ZN4absl12lts_2024072212log_internal10LogMessage19CopyToEncodedBufferILNS2_10StringTypeE0EEEvSt17basic_string_viewIcSt11char_traitsIcEE(ptr noundef nonnull align 8 dereferenceable(16) %6, i64 %10, ptr %12)
  ret ptr %6
}

; Function Attrs: mustprogress nounwind uwtable
define linkonce_odr noundef nonnull align 8 dereferenceable(16) ptr @_ZN4absl12lts_2024072212log_internal10LogMessage14InternalStreamEv(ptr noundef nonnull align 8 dereferenceable(16) %0) #6 comdat align 2 {
  %2 = alloca ptr, align 8
  store ptr %0, ptr %2, align 8, !tbaa !54
  %3 = load ptr, ptr %2, align 8
  ret ptr %3
}

; Function Attrs: mustprogress uwtable
define noundef i32 @_Z26alts_tsi_handshaker_createPK29grpc_alts_credentials_optionsPKcS3_bP16grpc_pollset_setPP14tsi_handshakerm(ptr noundef %0, ptr noundef %1, ptr noundef %2, i1 noundef zeroext %3, ptr noundef %4, ptr noundef %5, i64 noundef %6) #4 personality ptr @__gxx_personality_v0 {
  %8 = alloca i32, align 4
  %9 = alloca ptr, align 8
  %10 = alloca ptr, align 8
  %11 = alloca ptr, align 8
  %12 = alloca i8, align 1
  %13 = alloca ptr, align 8
  %14 = alloca ptr, align 8
  %15 = alloca i64, align 8
  %16 = alloca %"class.absl::lts_20240722::log_internal::Voidify", align 1
  %17 = alloca %"class.absl::lts_20240722::log_internal::LogMessage", align 8
  %18 = alloca ptr, align 8
  %19 = alloca i32, align 4
  %20 = alloca i8, align 1
  %21 = alloca ptr, align 8
  %22 = alloca %struct.grpc_slice, align 8
  store ptr %0, ptr %9, align 8, !tbaa !95
  store ptr %1, ptr %10, align 8, !tbaa !39
  store ptr %2, ptr %11, align 8, !tbaa !39
  %23 = zext i1 %3 to i8
  store i8 %23, ptr %12, align 1, !tbaa !8
  store ptr %4, ptr %13, align 8, !tbaa !96
  store ptr %5, ptr %14, align 8, !tbaa !97
  store i64 %6, ptr %15, align 8, !tbaa !40
  %24 = load ptr, ptr %11, align 8, !tbaa !39
  %25 = icmp eq ptr %24, null
  br i1 %25, label %38, label %26

26:                                               ; preds = %7
  %27 = load ptr, ptr %14, align 8, !tbaa !97
  %28 = icmp eq ptr %27, null
  br i1 %28, label %38, label %29

29:                                               ; preds = %26
  %30 = load ptr, ptr %9, align 8, !tbaa !95
  %31 = icmp eq ptr %30, null
  br i1 %31, label %38, label %32

32:                                               ; preds = %29
  %33 = load i8, ptr %12, align 1, !tbaa !8, !range !34, !noundef !35
  %34 = trunc i8 %33 to i1
  br i1 %34, label %35, label %48

35:                                               ; preds = %32
  %36 = load ptr, ptr %10, align 8, !tbaa !39
  %37 = icmp eq ptr %36, null
  br i1 %37, label %38, label %48

38:                                               ; preds = %35, %29, %26, %7
  call void @llvm.lifetime.start.p0(i64 1, ptr %16) #3
  call void @llvm.lifetime.start.p0(i64 16, ptr %17) #3
  call void @_ZN4absl12lts_2024072212log_internal10LogMessageC1EPKciNS2_8ErrorTagE(ptr noundef nonnull align 8 dereferenceable(16) %17, ptr noundef @.str, i32 noundef 652) #26
  %39 = invoke noundef nonnull align 8 dereferenceable(16) ptr @_ZN4absl12lts_2024072212log_internal10LogMessage14InternalStreamEv(ptr noundef nonnull align 8 dereferenceable(16) %17)
          to label %40 unwind label %44

40:                                               ; preds = %38
  %41 = invoke noundef nonnull align 8 dereferenceable(16) ptr @_ZN4absl12lts_2024072212log_internal10LogMessagelsILi50EEERS2_RAT__Kc(ptr noundef nonnull align 8 dereferenceable(16) %39, ptr noundef nonnull align 1 dereferenceable(50) @.str.13)
          to label %42 unwind label %44

42:                                               ; preds = %40
  invoke void @_ZNKO4absl12lts_2024072212log_internal7VoidifyaaINS1_10LogMessageEEEvRKT_(ptr noundef nonnull align 1 dereferenceable(1) %16, ptr noundef nonnull align 8 dereferenceable(16) %41)
          to label %43 unwind label %44

43:                                               ; preds = %42
  call void @_ZN4absl12lts_2024072212log_internal10LogMessageD1Ev(ptr noundef nonnull align 8 dereferenceable(16) %17) #27
  call void @llvm.lifetime.end.p0(i64 16, ptr %17) #3
  call void @llvm.lifetime.end.p0(i64 1, ptr %16) #3
  store i32 2, ptr %8, align 4
  br label %107

44:                                               ; preds = %42, %40, %38
  %45 = landingpad { ptr, i32 }
          cleanup
  %46 = extractvalue { ptr, i32 } %45, 0
  store ptr %46, ptr %18, align 8
  %47 = extractvalue { ptr, i32 } %45, 1
  store i32 %47, ptr %19, align 4
  call void @_ZN4absl12lts_2024072212log_internal10LogMessageD1Ev(ptr noundef nonnull align 8 dereferenceable(16) %17) #27
  call void @llvm.lifetime.end.p0(i64 16, ptr %17) #3
  call void @llvm.lifetime.end.p0(i64 1, ptr %16) #3
  br label %109

48:                                               ; preds = %35, %32
  call void @llvm.lifetime.start.p0(i64 1, ptr %20) #3
  %49 = load ptr, ptr %13, align 8, !tbaa !96
  %50 = icmp eq ptr %49, null
  %51 = zext i1 %50 to i8
  store i8 %51, ptr %20, align 1, !tbaa !8
  call void @llvm.lifetime.start.p0(i64 8, ptr %21) #3
  %52 = call noalias noundef nonnull ptr @_Znwm(i64 noundef 136) #29
  call void @llvm.memset.p0.i64(ptr align 16 %52, i8 0, i64 136, i1 false)
  invoke void @_ZN19alts_tsi_handshakerC2Ev(ptr noundef nonnull align 8 dereferenceable(136) %52)
          to label %53 unwind label %103

53:                                               ; preds = %48
  store ptr %52, ptr %21, align 8, !tbaa !67
  %54 = load ptr, ptr %21, align 8, !tbaa !67
  %55 = getelementptr inbounds nuw %struct.alts_tsi_handshaker, ptr %54, i32 0, i32 0
  call void @llvm.memset.p0.i64(ptr align 8 %55, i8 0, i64 16, i1 false)
  %56 = load i8, ptr %20, align 1, !tbaa !8, !range !34, !noundef !35
  %57 = trunc i8 %56 to i1
  %58 = select i1 %57, ptr @_ZL27handshaker_vtable_dedicated, ptr @_ZL17handshaker_vtable
  %59 = load ptr, ptr %21, align 8, !tbaa !67
  %60 = getelementptr inbounds nuw %struct.alts_tsi_handshaker, ptr %59, i32 0, i32 0
  %61 = getelementptr inbounds nuw %struct.tsi_handshaker, ptr %60, i32 0, i32 0
  store ptr %58, ptr %61, align 8, !tbaa !99
  call void @llvm.lifetime.start.p0(i64 32, ptr %22) #3
  %62 = load ptr, ptr %10, align 8, !tbaa !39
  %63 = icmp eq ptr %62, null
  br i1 %63, label %64, label %65

64:                                               ; preds = %53
  call void @grpc_empty_slice(ptr dead_on_unwind writable sret(%struct.grpc_slice) align 8 %22)
  br label %67

65:                                               ; preds = %53
  %66 = load ptr, ptr %10, align 8, !tbaa !39
  call void @grpc_slice_from_static_string(ptr dead_on_unwind writable sret(%struct.grpc_slice) align 8 %22, ptr noundef %66)
  br label %67

67:                                               ; preds = %65, %64
  %68 = load ptr, ptr %21, align 8, !tbaa !67
  %69 = getelementptr inbounds nuw %struct.alts_tsi_handshaker, ptr %68, i32 0, i32 1
  call void @llvm.memcpy.p0.p0.i64(ptr align 8 %69, ptr align 8 %22, i64 32, i1 false), !tbaa.struct !45
  call void @llvm.lifetime.end.p0(i64 32, ptr %22) #3
  %70 = load i8, ptr %12, align 1, !tbaa !8, !range !34, !noundef !35
  %71 = trunc i8 %70 to i1
  %72 = load ptr, ptr %21, align 8, !tbaa !67
  %73 = getelementptr inbounds nuw %struct.alts_tsi_handshaker, ptr %72, i32 0, i32 2
  %74 = zext i1 %71 to i8
  store i8 %74, ptr %73, align 8, !tbaa !100
  %75 = load ptr, ptr %11, align 8, !tbaa !39
  %76 = call ptr @gpr_strdup(ptr noundef %75)
  %77 = load ptr, ptr %21, align 8, !tbaa !67
  %78 = getelementptr inbounds nuw %struct.alts_tsi_handshaker, ptr %77, i32 0, i32 5
  store ptr %76, ptr %78, align 8, !tbaa !101
  %79 = load ptr, ptr %13, align 8, !tbaa !96
  %80 = load ptr, ptr %21, align 8, !tbaa !67
  %81 = getelementptr inbounds nuw %struct.alts_tsi_handshaker, ptr %80, i32 0, i32 6
  store ptr %79, ptr %81, align 8, !tbaa !102
  %82 = load ptr, ptr %9, align 8, !tbaa !95
  %83 = call noundef ptr @_Z34grpc_alts_credentials_options_copyPK29grpc_alts_credentials_options(ptr noundef %82)
  %84 = load ptr, ptr %21, align 8, !tbaa !67
  %85 = getelementptr inbounds nuw %struct.alts_tsi_handshaker, ptr %84, i32 0, i32 7
  store ptr %83, ptr %85, align 8, !tbaa !103
  %86 = load i8, ptr %20, align 1, !tbaa !8, !range !34, !noundef !35
  %87 = trunc i8 %86 to i1
  %88 = load ptr, ptr %21, align 8, !tbaa !67
  %89 = getelementptr inbounds nuw %struct.alts_tsi_handshaker, ptr %88, i32 0, i32 10
  %90 = zext i1 %87 to i8
  store i8 %90, ptr %89, align 8, !tbaa !104
  %91 = load i64, ptr %15, align 8, !tbaa !40
  %92 = icmp ne i64 %91, 0
  br i1 %92, label %93, label %95

93:                                               ; preds = %67
  %94 = load i64, ptr %15, align 8, !tbaa !40
  br label %96

95:                                               ; preds = %67
  br label %96

96:                                               ; preds = %95, %93
  %97 = phi i64 [ %94, %93 ], [ 1048576, %95 ]
  %98 = load ptr, ptr %21, align 8, !tbaa !67
  %99 = getelementptr inbounds nuw %struct.alts_tsi_handshaker, ptr %98, i32 0, i32 14
  store i64 %97, ptr %99, align 8, !tbaa !105
  %100 = load ptr, ptr %21, align 8, !tbaa !67
  %101 = getelementptr inbounds nuw %struct.alts_tsi_handshaker, ptr %100, i32 0, i32 0
  %102 = load ptr, ptr %14, align 8, !tbaa !97
  store ptr %101, ptr %102, align 8, !tbaa !106
  store i32 0, ptr %8, align 4
  call void @llvm.lifetime.end.p0(i64 8, ptr %21) #3
  call void @llvm.lifetime.end.p0(i64 1, ptr %20) #3
  br label %107

103:                                              ; preds = %48
  %104 = landingpad { ptr, i32 }
          cleanup
  %105 = extractvalue { ptr, i32 } %104, 0
  store ptr %105, ptr %18, align 8
  %106 = extractvalue { ptr, i32 } %104, 1
  store i32 %106, ptr %19, align 4
  call void @_ZdlPvm(ptr noundef %52, i64 noundef 136) #30
  call void @llvm.lifetime.end.p0(i64 8, ptr %21) #3
  call void @llvm.lifetime.end.p0(i64 1, ptr %20) #3
  br label %109

107:                                              ; preds = %96, %43
  %108 = load i32, ptr %8, align 4
  ret i32 %108

109:                                              ; preds = %103, %44
  %110 = load ptr, ptr %18, align 8
  %111 = load i32, ptr %19, align 4
  %112 = insertvalue { ptr, i32 } poison, ptr %110, 0
  %113 = insertvalue { ptr, i32 } %112, i32 %111, 1
  resume { ptr, i32 } %113
}