; Function Attrs: mustprogress uwtable
define noundef range(i32 0, 3) i32 @_Z26alts_tsi_handshaker_createPK29grpc_alts_credentials_optionsPKcS3_bP16grpc_pollset_setPP14tsi_handshakerm(ptr noundef %0, ptr noundef %1, ptr noundef %2, i1 noundef zeroext %3, ptr noundef %4, ptr noundef writeonly %5, i64 noundef %6) local_unnamed_addr #3 personality ptr @__gxx_personality_v0 {
  %8 = alloca %"class.absl::lts_20240722::log_internal::LogMessage", align 8
  %9 = alloca %struct.grpc_slice, align 8
  %10 = zext i1 %3 to i8
  %11 = icmp eq ptr %2, null
  %12 = icmp eq ptr %5, null
  %or.cond = or i1 %11, %12
  %13 = icmp eq ptr %0, null
  %or.cond3 = or i1 %13, %or.cond
  br i1 %or.cond3, label %16, label %14

14:                                               ; preds = %7
  %15 = icmp eq ptr %1, null
  %or.cond5 = and i1 %15, %3
  br i1 %or.cond5, label %16, label %19

16:                                               ; preds = %14, %7
  call void @llvm.lifetime.start.p0(i64 16, ptr nonnull %8) #29
  call void @_ZN4absl12lts_2024072212log_internal10LogMessageC1EPKciNS2_8ErrorTagE(ptr noundef nonnull align 8 dereferenceable(16) %8, ptr noundef nonnull @.str, i32 noundef 652) #30
  invoke void @_ZN4absl12lts_2024072212log_internal10LogMessage19CopyToEncodedBufferILNS2_10StringTypeE0EEEvSt17basic_string_viewIcSt11char_traitsIcEE(ptr noundef nonnull align 8 dereferenceable(16) %8, i64 49, ptr nonnull @.str.13)
          to label %_ZN4absl12lts_2024072212log_internal10LogMessagelsILi50EEERS2_RAT__Kc.exit unwind label %17

_ZN4absl12lts_2024072212log_internal10LogMessagelsILi50EEERS2_RAT__Kc.exit: ; preds = %16
  call void @_ZN4absl12lts_2024072212log_internal10LogMessageD1Ev(ptr noundef nonnull align 8 dereferenceable(16) %8) #31
  call void @llvm.lifetime.end.p0(i64 16, ptr nonnull %8) #29
  br label %38

17:                                               ; preds = %16
  %18 = landingpad { ptr, i32 }
          cleanup
  call void @_ZN4absl12lts_2024072212log_internal10LogMessageD1Ev(ptr noundef nonnull align 8 dereferenceable(16) %8) #31
  call void @llvm.lifetime.end.p0(i64 16, ptr nonnull %8) #29
  resume { ptr, i32 } %18

19:                                               ; preds = %14
  %20 = icmp eq ptr %4, null
  %21 = zext i1 %20 to i8
  %22 = tail call noalias noundef nonnull dereferenceable(136) ptr @_Znwm(i64 noundef 136) #33
  %23 = select i1 %20, ptr @_ZL27handshaker_vtable_dedicated, ptr @_ZL17handshaker_vtable
  %24 = getelementptr inbounds nuw i8, ptr %22, i64 8
  tail call void @llvm.memset.p0.i64(ptr noundef nonnull align 8 dereferenceable(128) %24, i8 0, i64 128, i1 false)
  store ptr %23, ptr %22, align 8, !tbaa !68
  call void @llvm.lifetime.start.p0(i64 32, ptr nonnull %9) #29
  br i1 %15, label %25, label %26

25:                                               ; preds = %19
  call void @grpc_empty_slice(ptr dead_on_unwind nonnull writable sret(%struct.grpc_slice) align 8 %9)
  br label %27

26:                                               ; preds = %19
  call void @grpc_slice_from_static_string(ptr dead_on_unwind nonnull writable sret(%struct.grpc_slice) align 8 %9, ptr noundef nonnull %1)
  br label %27

27:                                               ; preds = %26, %25
  %28 = getelementptr inbounds nuw i8, ptr %22, i64 16
  call void @llvm.memcpy.p0.p0.i64(ptr noundef nonnull align 8 dereferenceable(32) %28, ptr noundef nonnull align 8 dereferenceable(32) %9, i64 32, i1 false), !tbaa.struct !44
  call void @llvm.lifetime.end.p0(i64 32, ptr nonnull %9) #29
  %29 = getelementptr inbounds nuw i8, ptr %22, i64 48
  store i8 %10, ptr %29, align 8, !tbaa !69
  %30 = call ptr @gpr_strdup(ptr noundef nonnull %2)
  %31 = getelementptr inbounds nuw i8, ptr %22, i64 56
  store ptr %30, ptr %31, align 8, !tbaa !70
  %32 = getelementptr inbounds nuw i8, ptr %22, i64 64
  store ptr %4, ptr %32, align 8, !tbaa !71
  %33 = call noundef ptr @_Z34grpc_alts_credentials_options_copyPK29grpc_alts_credentials_options(ptr noundef nonnull %0)
  %34 = getelementptr inbounds nuw i8, ptr %22, i64 72
  store ptr %33, ptr %34, align 8, !tbaa !72
  %35 = getelementptr inbounds nuw i8, ptr %22, i64 96
  store i8 %21, ptr %35, align 8, !tbaa !73
  %.not = icmp eq i64 %6, 0
  %36 = select i1 %.not, i64 1048576, i64 %6
  %37 = getelementptr inbounds nuw i8, ptr %22, i64 128
  store i64 %36, ptr %37, align 8, !tbaa !74
  store ptr %22, ptr %5, align 8, !tbaa !75
  br label %38

38:                                               ; preds = %27, %_ZN4absl12lts_2024072212log_internal10LogMessagelsILi50EEERS2_RAT__Kc.exit
  %.0 = phi i32 [ 2, %_ZN4absl12lts_2024072212log_internal10LogMessagelsILi50EEERS2_RAT__Kc.exit ], [ 0, %27 ]
  ret i32 %.0
}